target datalayout = "e-m:e-p270:32:32-p271:32:32-p272:64:64-i64:64-i128:128-f80:128-n8:16:32:64-S128"
target triple = "x86_64-pc-linux-gnu"

%struct.H5D_t = type { %struct.H5O_loc_t, %struct.H5G_name_t, ptr }
%struct.H5O_loc_t = type { ptr, i64, i8 }
%struct.H5G_name_t = type { ptr, ptr, i32 }
%struct.H5D_shared_t = type { i64, i8, i64, ptr, ptr, i64, i64, %struct.H5D_dcpl_cache_t, %struct.H5O_layout_t, i8, i32, [32 x i64], [32 x i64], [32 x i64], %struct.anon.6, %struct.H5D_append_flush_t, ptr, ptr }
%struct.H5D_dcpl_cache_t = type { %struct.H5O_fill_t, %struct.H5O_pline_t, %struct.H5O_efl_t }
%struct.H5O_fill_t = type { %struct.H5O_shared_t, i32, ptr, i64, ptr, i32, i32, i8 }
%struct.H5O_shared_t = type { i32, ptr, i32, %union.anon }
%union.anon = type { %struct.H5O_mesg_loc_t }
%struct.H5O_mesg_loc_t = type { i32, i64 }
%struct.H5O_pline_t = type { %struct.H5O_shared_t, i32, i64, i64, ptr }
%struct.H5O_efl_t = type { i64, i64, i64, ptr }
%struct.H5O_layout_t = type { i32, i32, ptr, %union.anon.0, %struct.H5O_storage_t }
%union.anon.0 = type { %struct.H5O_layout_chunk_t }
%struct.H5O_layout_chunk_t = type { i32, i8, i32, [33 x i32], i32, i32, i64, i64, [33 x i64], [33 x i64], [33 x i64], [33 x i64], %union.anon.1 }
%union.anon.1 = type { %struct.H5O_layout_chunk_earray_t }
%struct.H5O_layout_chunk_earray_t = type { %struct.anon.2, i32, [33 x i32], [33 x i64], [33 x i64] }
%struct.anon.2 = type { i8, i8, i8, i8, i8 }
%struct.H5O_storage_t = type { i32, %union.anon.4 }
%union.anon.4 = type { %struct.H5O_storage_virtual_t }
%struct.H5O_storage_virtual_t = type { %struct.H5HG_t, i64, ptr, i64, [32 x i64], i32, i64, i64, i64, i8 }
%struct.H5HG_t = type { i64, i64 }
%struct.anon.6 = type { %struct.H5D_rdcdc_t, %struct.H5D_rdcc_t }
%struct.H5D_rdcdc_t = type { ptr, i64, i64, i64, i8 }
%struct.H5D_rdcc_t = type { %struct.anon.7, i64, i64, double, ptr, ptr, ptr, i64, i32, %struct.H5D_chunk_cached_t, ptr, ptr, ptr, ptr, [32 x i64], [32 x i64], [32 x i32] }
%struct.anon.7 = type { i32, i32, i32, i32 }
%struct.H5D_chunk_cached_t = type { i8, [33 x i64], i64, i32, i64, i32 }
%struct.H5D_append_flush_t = type { i32, [32 x i64], ptr, ptr }

@H5D_init_g = external global i8, align 1
@H5_libterm_g = external global i8, align 1
@.str.1 = private unnamed_addr constant [102 x i8] c"generated/home/dtcxzyw/WorkSpace/Projects/compilers/llvm-opt-benchmark/bench/hdf5/hdf5/src/H5Dchunk.c\00", align 1
@H5E_DATASET_g = external global i64, align 8
@H5E_CANTINIT_g = external global i64, align 8
@__func__.H5D__chunk_set_sizes = private unnamed_addr constant [21 x i8] c"H5D__chunk_set_sizes\00", align 1
@.str.14 = private unnamed_addr constant [25 x i8] c"chunk size must be < 4GB\00", align 1

; Function Attrs: inlinehint nounwind uwtable
define internal i32 @H5VM_log2_gen(i64 noundef %0) #4 {
  %2 = alloca i64, align 8
  %3 = alloca i32, align 4
  %4 = alloca i32, align 4
  %5 = alloca i32, align 4
  %6 = alloca i32, align 4
  store i64 %0, ptr %2, align 8, !tbaa !24
  call void @llvm.lifetime.start.p0(i64 4, ptr %3) #10
  call void @llvm.lifetime.start.p0(i64 4, ptr %4) #10
  call void @llvm.lifetime.start.p0(i64 4, ptr %5) #10
  call void @llvm.lifetime.start.p0(i64 4, ptr %6) #10
  %7 = load i64, ptr %2, align 8, !tbaa !24
  %8 = lshr i64 %7, 32
  %9 = trunc i64 %8 to i32
  store i32 %9, ptr %6, align 4, !tbaa !10
  %10 = icmp ne i32 %9, 0
  br i1 %10, label %11, label %61

11:                                               ; preds = %1
  %12 = load i64, ptr %2, align 8, !tbaa !24
  %13 = lshr i64 %12, 48
  %14 = trunc i64 %13 to i32
  store i32 %14, ptr %5, align 4, !tbaa !10
  %15 = icmp ne i32 %14, 0
  br i1 %15, label %16, label %38

16:                                               ; preds = %11
  %17 = load i64, ptr %2, align 8, !tbaa !24
  %18 = lshr i64 %17, 56
  %19 = trunc i64 %18 to i32
  store i32 %19, ptr %4, align 4, !tbaa !10
  %20 = icmp ne i32 %19, 0
  br i1 %20, label %21, label %28

21:                                               ; preds = %16
  %22 = load i32, ptr %4, align 4, !tbaa !10
  %23 = zext i32 %22 to i64
  %24 = getelementptr inbounds nuw [256 x i8], ptr @LogTable256, i64 0, i64 %23
  %25 = load i8, ptr %24, align 1, !tbaa !23
  %26 = zext i8 %25 to i32
  %27 = add i32 56, %26
  br label %36

28:                                               ; preds = %16
  %29 = load i32, ptr %5, align 4, !tbaa !10
  %30 = and i32 %29, 255
  %31 = zext i32 %30 to i64
  %32 = getelementptr inbounds nuw [256 x i8], ptr @LogTable256, i64 0, i64 %31
  %33 = load i8, ptr %32, align 1, !tbaa !23
  %34 = zext i8 %33 to i32
  %35 = add i32 48, %34
  br label %36

36:                                               ; preds = %28, %21
  %37 = phi i32 [ %27, %21 ], [ %35, %28 ]
  store i32 %37, ptr %3, align 4, !tbaa !10
  br label %60

38:                                               ; preds = %11
  %39 = load i64, ptr %2, align 8, !tbaa !24
  %40 = lshr i64 %39, 40
  %41 = trunc i64 %40 to i32
  store i32 %41, ptr %4, align 4, !tbaa !10
  %42 = icmp ne i32 %41, 0
  br i1 %42, label %43, label %50

43:                                               ; preds = %38
  %44 = load i32, ptr %4, align 4, !tbaa !10
  %45 = zext i32 %44 to i64
  %46 = getelementptr inbounds nuw [256 x i8], ptr @LogTable256, i64 0, i64 %45
  %47 = load i8, ptr %46, align 1, !tbaa !23
  %48 = zext i8 %47 to i32
  %49 = add i32 40, %48
  br label %58

50:                                               ; preds = %38
  %51 = load i32, ptr %6, align 4, !tbaa !10
  %52 = and i32 %51, 255
  %53 = zext i32 %52 to i64
  %54 = getelementptr inbounds nuw [256 x i8], ptr @LogTable256, i64 0, i64 %53
  %55 = load i8, ptr %54, align 1, !tbaa !23
  %56 = zext i8 %55 to i32
  %57 = add i32 32, %56
  br label %58

58:                                               ; preds = %50, %43
  %59 = phi i32 [ %49, %43 ], [ %57, %50 ]
  store i32 %59, ptr %3, align 4, !tbaa !10
  br label %60

60:                                               ; preds = %58, %36
  br label %110

61:                                               ; preds = %1
  %62 = load i64, ptr %2, align 8, !tbaa !24
  %63 = lshr i64 %62, 16
  %64 = trunc i64 %63 to i32
  store i32 %64, ptr %5, align 4, !tbaa !10
  %65 = icmp ne i32 %64, 0
  br i1 %65, label %66, label %88

66:                                               ; preds = %61
  %67 = load i64, ptr %2, align 8, !tbaa !24
  %68 = lshr i64 %67, 24
  %69 = trunc i64 %68 to i32
  store i32 %69, ptr %4, align 4, !tbaa !10
  %70 = icmp ne i32 %69, 0
  br i1 %70, label %71, label %78

71:                                               ; preds = %66
  %72 = load i32, ptr %4, align 4, !tbaa !10
  %73 = zext i32 %72 to i64
  %74 = getelementptr inbounds nuw [256 x i8], ptr @LogTable256, i64 0, i64 %73
  %75 = load i8, ptr %74, align 1, !tbaa !23
  %76 = zext i8 %75 to i32
  %77 = add i32 24, %76
  br label %86

78:                                               ; preds = %66
  %79 = load i32, ptr %5, align 4, !tbaa !10
  %80 = and i32 %79, 255
  %81 = zext i32 %80 to i64
  %82 = getelementptr inbounds nuw [256 x i8], ptr @LogTable256, i64 0, i64 %81
  %83 = load i8, ptr %82, align 1, !tbaa !23
  %84 = zext i8 %83 to i32
  %85 = add i32 16, %84
  br label %86

86:                                               ; preds = %78, %71
  %87 = phi i32 [ %77, %71 ], [ %85, %78 ]
  store i32 %87, ptr %3, align 4, !tbaa !10
  br label %109

88:                                               ; preds = %61
  %89 = load i64, ptr %2, align 8, !tbaa !24
  %90 = lshr i64 %89, 8
  %91 = trunc i64 %90 to i32
  store i32 %91, ptr %4, align 4, !tbaa !10
  %92 = icmp ne i32 %91, 0
  br i1 %92, label %93, label %100

93:                                               ; preds = %88
  %94 = load i32, ptr %4, align 4, !tbaa !10
  %95 = zext i32 %94 to i64
  %96 = getelementptr inbounds nuw [256 x i8], ptr @LogTable256, i64 0, i64 %95
  %97 = load i8, ptr %96, align 1, !tbaa !23
  %98 = zext i8 %97 to i32
  %99 = add i32 8, %98
  br label %107

100:                                              ; preds = %88
  %101 = load i64, ptr %2, align 8, !tbaa !24
  %102 = trunc i64 %101 to i8
  %103 = zext i8 %102 to i64
  %104 = getelementptr inbounds nuw [256 x i8], ptr @LogTable256, i64 0, i64 %103
  %105 = load i8, ptr %104, align 1, !tbaa !23
  %106 = zext i8 %105 to i32
  br label %107

107:                                              ; preds = %100, %93
  %108 = phi i32 [ %99, %93 ], [ %106, %100 ]
  store i32 %108, ptr %3, align 4, !tbaa !10
  br label %109

109:                                              ; preds = %107, %86
  br label %110

110:                                              ; preds = %109, %60
  %111 = load i32, ptr %3, align 4, !tbaa !10
  call void @llvm.lifetime.end.p0(i64 4, ptr %6) #10
  call void @llvm.lifetime.end.p0(i64 4, ptr %5) #10
  call void @llvm.lifetime.end.p0(i64 4, ptr %4) #10
  call void @llvm.lifetime.end.p0(i64 4, ptr %3) #10
  ret i32 %111
}

; Function Attrs: nounwind uwtable
define i32 @H5D__chunk_set_sizes(ptr noundef %0) #0 {
  %2 = alloca ptr, align 8
  %3 = alloca i64, align 8
  %4 = alloca i32, align 4
  %5 = alloca i32, align 4
  %6 = alloca i32, align 4
  %7 = alloca i8, align 1
  %8 = alloca i32, align 4
  store ptr %0, ptr %2, align 8, !tbaa !8
  call void @llvm.lifetime.start.p0(i64 8, ptr %3) #10
  call void @llvm.lifetime.start.p0(i64 4, ptr %4) #10
  call void @llvm.lifetime.start.p0(i64 4, ptr %5) #10
  call void @llvm.lifetime.start.p0(i64 4, ptr %6) #10
  store i32 0, ptr %6, align 4, !tbaa !10
  call void @llvm.lifetime.start.p0(i64 1, ptr %7) #10
  store i8 0, ptr %7, align 1, !tbaa !12
  %9 = load i8, ptr @H5D_init_g, align 1, !tbaa !12, !range !14, !noundef !15
  %10 = trunc i8 %9 to i1
  br i1 %10, label %15, label %11

11:                                               ; preds = %1
  %12 = load i8, ptr @H5_libterm_g, align 1, !tbaa !12, !range !14, !noundef !15
  %13 = trunc i8 %12 to i1
  %14 = xor i1 %13, true
  br label %15

15:                                               ; preds = %11, %1
  %16 = phi i1 [ true, %1 ], [ %14, %11 ]
  %17 = xor i1 %16, true
  %18 = xor i1 %17, true
  %19 = zext i1 %18 to i32
  %20 = sext i32 %19 to i64
  %21 = call i64 @llvm.expect.i64(i64 %20, i64 1)
  %22 = icmp ne i64 %21, 0
  br i1 %22, label %23, label %168

23:                                               ; preds = %15
  %24 = load ptr, ptr %2, align 8, !tbaa !8
  %25 = getelementptr inbounds nuw %struct.H5D_t, ptr %24, i32 0, i32 2
  %26 = load ptr, ptr %25, align 8, !tbaa !16
  %27 = getelementptr inbounds nuw %struct.H5D_shared_t, ptr %26, i32 0, i32 8
  %28 = getelementptr inbounds nuw %struct.H5O_layout_t, ptr %27, i32 0, i32 3
  %29 = getelementptr inbounds nuw %struct.H5O_layout_chunk_t, ptr %28, i32 0, i32 2
  %30 = load i32, ptr %29, align 8, !tbaa !23
  %31 = add i32 %30, 1
  store i32 %31, ptr %29, align 8, !tbaa !23
  %32 = load ptr, ptr %2, align 8, !tbaa !8
  %33 = getelementptr inbounds nuw %struct.H5D_t, ptr %32, i32 0, i32 2
  %34 = load ptr, ptr %33, align 8, !tbaa !16
  %35 = getelementptr inbounds nuw %struct.H5D_shared_t, ptr %34, i32 0, i32 3
  %36 = load ptr, ptr %35, align 8, !tbaa !244
  %37 = call i64 @H5T_get_size(ptr noundef %36)
  %38 = trunc i64 %37 to i32
  %39 = load ptr, ptr %2, align 8, !tbaa !8
  %40 = getelementptr inbounds nuw %struct.H5D_t, ptr %39, i32 0, i32 2
  %41 = load ptr, ptr %40, align 8, !tbaa !16
  %42 = getelementptr inbounds nuw %struct.H5D_shared_t, ptr %41, i32 0, i32 8
  %43 = getelementptr inbounds nuw %struct.H5O_layout_t, ptr %42, i32 0, i32 3
  %44 = getelementptr inbounds nuw %struct.H5O_layout_chunk_t, ptr %43, i32 0, i32 3
  %45 = load ptr, ptr %2, align 8, !tbaa !8
  %46 = getelementptr inbounds nuw %struct.H5D_t, ptr %45, i32 0, i32 2
  %47 = load ptr, ptr %46, align 8, !tbaa !16
  %48 = getelementptr inbounds nuw %struct.H5D_shared_t, ptr %47, i32 0, i32 8
  %49 = getelementptr inbounds nuw %struct.H5O_layout_t, ptr %48, i32 0, i32 3
  %50 = getelementptr inbounds nuw %struct.H5O_layout_chunk_t, ptr %49, i32 0, i32 2
  %51 = load i32, ptr %50, align 8, !tbaa !23
  %52 = sub i32 %51, 1
  %53 = zext i32 %52 to i64
  %54 = getelementptr inbounds nuw [33 x i32], ptr %44, i64 0, i64 %53
  store i32 %38, ptr %54, align 4, !tbaa !23
  store i32 0, ptr %4, align 4, !tbaa !10
  store i32 0, ptr %5, align 4, !tbaa !10
  br label %55

55:                                               ; preds = %86, %23
  %56 = load i32, ptr %5, align 4, !tbaa !10
  %57 = load ptr, ptr %2, align 8, !tbaa !8
  %58 = getelementptr inbounds nuw %struct.H5D_t, ptr %57, i32 0, i32 2
  %59 = load ptr, ptr %58, align 8, !tbaa !16
  %60 = getelementptr inbounds nuw %struct.H5D_shared_t, ptr %59, i32 0, i32 8
  %61 = getelementptr inbounds nuw %struct.H5O_layout_t, ptr %60, i32 0, i32 3
  %62 = getelementptr inbounds nuw %struct.H5O_layout_chunk_t, ptr %61, i32 0, i32 2
  %63 = load i32, ptr %62, align 8, !tbaa !23
  %64 = icmp ult i32 %56, %63
  br i1 %64, label %65, label %89

65:                                               ; preds = %55
  call void @llvm.lifetime.start.p0(i64 4, ptr %8) #10
  %66 = load ptr, ptr %2, align 8, !tbaa !8
  %67 = getelementptr inbounds nuw %struct.H5D_t, ptr %66, i32 0, i32 2
  %68 = load ptr, ptr %67, align 8, !tbaa !16
  %69 = getelementptr inbounds nuw %struct.H5D_shared_t, ptr %68, i32 0, i32 8
  %70 = getelementptr inbounds nuw %struct.H5O_layout_t, ptr %69, i32 0, i32 3
  %71 = getelementptr inbounds nuw %struct.H5O_layout_chunk_t, ptr %70, i32 0, i32 3
  %72 = load i32, ptr %5, align 4, !tbaa !10
  %73 = zext i32 %72 to i64
  %74 = getelementptr inbounds nuw [33 x i32], ptr %71, i64 0, i64 %73
  %75 = load i32, ptr %74, align 4, !tbaa !23
  %76 = zext i32 %75 to i64
  %77 = call i32 @H5VM_log2_gen(i64 noundef %76)
  %78 = add i32 %77, 8
  %79 = udiv i32 %78, 8
  store i32 %79, ptr %8, align 4, !tbaa !10
  %80 = load i32, ptr %8, align 4, !tbaa !10
  %81 = load i32, ptr %4, align 4, !tbaa !10
  %82 = icmp ugt i32 %80, %81
  br i1 %82, label %83, label %85

83:                                               ; preds = %65
  %84 = load i32, ptr %8, align 4, !tbaa !10
  store i32 %84, ptr %4, align 4, !tbaa !10
  br label %85

85:                                               ; preds = %83, %65
  call void @llvm.lifetime.end.p0(i64 4, ptr %8) #10
  br label %86

86:                                               ; preds = %85
  %87 = load i32, ptr %5, align 4, !tbaa !10
  %88 = add i32 %87, 1
  store i32 %88, ptr %5, align 4, !tbaa !10
  br label %55, !llvm.loop !245

89:                                               ; preds = %55
  %90 = load i32, ptr %4, align 4, !tbaa !10
  %91 = load ptr, ptr %2, align 8, !tbaa !8
  %92 = getelementptr inbounds nuw %struct.H5D_t, ptr %91, i32 0, i32 2
  %93 = load ptr, ptr %92, align 8, !tbaa !16
  %94 = getelementptr inbounds nuw %struct.H5D_shared_t, ptr %93, i32 0, i32 8
  %95 = getelementptr inbounds nuw %struct.H5O_layout_t, ptr %94, i32 0, i32 3
  %96 = getelementptr inbounds nuw %struct.H5O_layout_chunk_t, ptr %95, i32 0, i32 4
  store i32 %90, ptr %96, align 8, !tbaa !23
  store i32 1, ptr %5, align 4, !tbaa !10
  %97 = load ptr, ptr %2, align 8, !tbaa !8
  %98 = getelementptr inbounds nuw %struct.H5D_t, ptr %97, i32 0, i32 2
  %99 = load ptr, ptr %98, align 8, !tbaa !16
  %100 = getelementptr inbounds nuw %struct.H5D_shared_t, ptr %99, i32 0, i32 8
  %101 = getelementptr inbounds nuw %struct.H5O_layout_t, ptr %100, i32 0, i32 3
  %102 = getelementptr inbounds nuw %struct.H5O_layout_chunk_t, ptr %101, i32 0, i32 3
  %103 = getelementptr inbounds [33 x i32], ptr %102, i64 0, i64 0
  %104 = load i32, ptr %103, align 4, !tbaa !23
  %105 = zext i32 %104 to i64
  store i64 %105, ptr %3, align 8, !tbaa !24
  br label %106

106:                                              ; preds = %130, %89
  %107 = load i32, ptr %5, align 4, !tbaa !10
  %108 = load ptr, ptr %2, align 8, !tbaa !8
  %109 = getelementptr inbounds nuw %struct.H5D_t, ptr %108, i32 0, i32 2
  %110 = load ptr, ptr %109, align 8, !tbaa !16
  %111 = getelementptr inbounds nuw %struct.H5D_shared_t, ptr %110, i32 0, i32 8
  %112 = getelementptr inbounds nuw %struct.H5O_layout_t, ptr %111, i32 0, i32 3
  %113 = getelementptr inbounds nuw %struct.H5O_layout_chunk_t, ptr %112, i32 0, i32 2
  %114 = load i32, ptr %113, align 8, !tbaa !23
  %115 = icmp ult i32 %107, %114
  br i1 %115, label %116, label %133

116:                                              ; preds = %106
  %117 = load ptr, ptr %2, align 8, !tbaa !8
  %118 = getelementptr inbounds nuw %struct.H5D_t, ptr %117, i32 0, i32 2
  %119 = load ptr, ptr %118, align 8, !tbaa !16
  %120 = getelementptr inbounds nuw %struct.H5D_shared_t, ptr %119, i32 0, i32 8
  %121 = getelementptr inbounds nuw %struct.H5O_layout_t, ptr %120, i32 0, i32 3
  %122 = getelementptr inbounds nuw %struct.H5O_layout_chunk_t, ptr %121, i32 0, i32 3
  %123 = load i32, ptr %5, align 4, !tbaa !10
  %124 = zext i32 %123 to i64
  %125 = getelementptr inbounds nuw [33 x i32], ptr %122, i64 0, i64 %124
  %126 = load i32, ptr %125, align 4, !tbaa !23
  %127 = zext i32 %126 to i64
  %128 = load i64, ptr %3, align 8, !tbaa !24
  %129 = mul i64 %128, %127
  store i64 %129, ptr %3, align 8, !tbaa !24
  br label %130

130:                                              ; preds = %116
  %131 = load i32, ptr %5, align 4, !tbaa !10
  %132 = add i32 %131, 1
  store i32 %132, ptr %5, align 4, !tbaa !10
  br label %106, !llvm.loop !246

133:                                              ; preds = %106
  %134 = load i64, ptr %3, align 8, !tbaa !24
  %135 = icmp ugt i64 %134, 4294967295
  br i1 %135, label %136, label %155

136:                                              ; preds = %133
  br label %137

137:                                              ; preds = %136
  br label %138

138:                                              ; preds = %137
  br label %139

139:                                              ; preds = %138
  %140 = load i64, ptr @H5E_DATASET_g, align 8, !tbaa !24
  %141 = load i64, ptr @H5E_CANTINIT_g, align 8, !tbaa !24
  %142 = call i32 (ptr, ptr, i32, i64, i64, ptr, ...) @H5E_printf_stack(ptr noundef @.str.1, ptr noundef @__func__.H5D__chunk_set_sizes, i32 noundef 798, i64 noundef %140, i64 noundef %141, ptr noundef @.str.14)
  br label %143

143:                                              ; preds = %139
  br label %144

144:                                              ; preds = %143
  store i8 1, ptr %7, align 1, !tbaa !12
  %145 = load i8, ptr %7, align 1, !tbaa !12, !range !14, !noundef !15
  %146 = trunc i8 %145 to i1
  %147 = zext i1 %146 to i8
  store i8 %147, ptr %7, align 1, !tbaa !12
  br label %148

148:                                              ; preds = %144
  br label %149

149:                                              ; preds = %148
  br label %150

150:                                              ; preds = %149
  store i32 -1, ptr %6, align 4, !tbaa !10
  br label %167

151:                                              ; No predecessors!
  br label %152

152:                                              ; preds = %151
  br label %153

153:                                              ; preds = %152
  br label %154

154:                                              ; preds = %153
  br label %155

155:                                              ; preds = %154, %133
  br label %156

156:                                              ; preds = %155
  %157 = load i64, ptr %3, align 8, !tbaa !24
  %158 = trunc i64 %157 to i32
  %159 = load ptr, ptr %2, align 8, !tbaa !8
  %160 = getelementptr inbounds nuw %struct.H5D_t, ptr %159, i32 0, i32 2
  %161 = load ptr, ptr %160, align 8, !tbaa !16
  %162 = getelementptr inbounds nuw %struct.H5D_shared_t, ptr %161, i32 0, i32 8
  %163 = getelementptr inbounds nuw %struct.H5O_layout_t, ptr %162, i32 0, i32 3
  %164 = getelementptr inbounds nuw %struct.H5O_layout_chunk_t, ptr %163, i32 0, i32 5
  store i32 %158, ptr %164, align 4, !tbaa !23
  br label %165

165:                                              ; preds = %156
  br label %166

166:                                              ; preds = %165
  br label %167

167:                                              ; preds = %166, %150
  br label %168

168:                                              ; preds = %167, %15
  %169 = load i32, ptr %6, align 4, !tbaa !10
  call void @llvm.lifetime.end.p0(i64 1, ptr %7) #10
  call void @llvm.lifetime.end.p0(i64 4, ptr %6) #10
  call void @llvm.lifetime.end.p0(i64 4, ptr %5) #10
  call void @llvm.lifetime.end.p0(i64 4, ptr %4) #10
  call void @llvm.lifetime.end.p0(i64 8, ptr %3) #10
  ret i32 %169
}