; Function Attrs: nounwind uwtable
define range(i32 -1, 1) i32 @H5D__chunk_set_sizes(ptr noundef readonly captures(none) %0) local_unnamed_addr #0 {
  %2 = load i8, ptr @H5D_init_g, align 1, !tbaa !3, !range !7, !noundef !8
  %3 = trunc nuw i8 %2 to i1
  %4 = load i8, ptr @H5_libterm_g, align 1, !range !7
  %5 = trunc nuw i8 %4 to i1
  %6 = xor i1 %5, true
  %7 = select i1 %3, i1 true, i1 %6
  br i1 %7, label %8, label %79, !prof !9

8:                                                ; preds = %1
  %9 = getelementptr inbounds nuw i8, ptr %0, i64 48
  %10 = load ptr, ptr %9, align 8, !tbaa !10
  %11 = getelementptr inbounds nuw i8, ptr %10, i64 272
  %12 = load i32, ptr %11, align 8, !tbaa !20
  %13 = add i32 %12, 1
  store i32 %13, ptr %11, align 8, !tbaa !20
  %14 = load ptr, ptr %9, align 8, !tbaa !10
  %15 = getelementptr inbounds nuw i8, ptr %14, i64 24
  %16 = load ptr, ptr %15, align 8, !tbaa !145
  %17 = tail call i64 @H5T_get_size(ptr noundef %16) #15
  %18 = trunc i64 %17 to i32
  %19 = load ptr, ptr %9, align 8, !tbaa !10
  %20 = getelementptr inbounds nuw i8, ptr %19, i64 276
  %21 = getelementptr inbounds nuw i8, ptr %19, i64 272
  %22 = load i32, ptr %21, align 8, !tbaa !20
  %23 = add i32 %22, -1
  %24 = zext i32 %23 to i64
  %25 = getelementptr inbounds nuw [33 x i32], ptr %20, i64 0, i64 %24
  store i32 %18, ptr %25, align 4, !tbaa !20
  %26 = load ptr, ptr %9, align 8, !tbaa !10
  %27 = getelementptr inbounds nuw i8, ptr %26, i64 272
  %28 = load i32, ptr %27, align 8, !tbaa !20
  %.not = icmp eq i32 %28, 0
  br i1 %.not, label %._crit_edge, label %.lr.ph

.lr.ph:                                           ; preds = %8
  %29 = getelementptr inbounds nuw i8, ptr %26, i64 276
  %wide.trip.count = zext i32 %28 to i64
  br label %30

30:                                               ; preds = %.lr.ph, %H5VM_log2_gen.exit
  %indvars.iv = phi i64 [ 0, %.lr.ph ], [ %indvars.iv.next, %H5VM_log2_gen.exit ]
  %.02730 = phi i32 [ 0, %.lr.ph ], [ %spec.select, %H5VM_log2_gen.exit ]
  %31 = getelementptr inbounds nuw [33 x i32], ptr %29, i64 0, i64 %indvars.iv
  %32 = load i32, ptr %31, align 4, !tbaa !20
  %33 = zext i32 %32 to i64
  %34 = lshr i64 %33, 16
  %.not23.i = icmp ult i32 %32, 65536
  br i1 %.not23.i, label %47, label %35

35:                                               ; preds = %30
  %.not25.i = icmp ult i32 %32, 16777216
  br i1 %.not25.i, label %42, label %36

36:                                               ; preds = %35
  %37 = lshr i64 %33, 24
  %38 = getelementptr inbounds nuw [256 x i8], ptr @LogTable256, i64 0, i64 %37
  %39 = load i8, ptr %38, align 1, !tbaa !20
  %40 = zext i8 %39 to i32
  %41 = add nuw nsw i32 %40, 24
  br label %H5VM_log2_gen.exit

42:                                               ; preds = %35
  %43 = getelementptr inbounds nuw [256 x i8], ptr @LogTable256, i64 0, i64 %34
  %44 = load i8, ptr %43, align 1, !tbaa !20
  %45 = zext i8 %44 to i32
  %46 = add nuw nsw i32 %45, 16
  br label %H5VM_log2_gen.exit

47:                                               ; preds = %30
  %.not24.i = icmp samesign ult i32 %32, 256
  br i1 %.not24.i, label %54, label %48

48:                                               ; preds = %47
  %49 = lshr i64 %33, 8
  %50 = getelementptr inbounds nuw [256 x i8], ptr @LogTable256, i64 0, i64 %49
  %51 = load i8, ptr %50, align 1, !tbaa !20
  %52 = zext i8 %51 to i32
  %53 = add nuw nsw i32 %52, 8
  br label %H5VM_log2_gen.exit

54:                                               ; preds = %47
  %55 = getelementptr inbounds nuw [256 x i8], ptr @LogTable256, i64 0, i64 %33
  %56 = load i8, ptr %55, align 1, !tbaa !20
  %57 = zext i8 %56 to i32
  br label %H5VM_log2_gen.exit

H5VM_log2_gen.exit:                               ; preds = %36, %42, %48, %54
  %.0.i = phi i32 [ %41, %36 ], [ %46, %42 ], [ %53, %48 ], [ %57, %54 ]
  %58 = add nuw nsw i32 %.0.i, 8
  %59 = lshr i32 %58, 3
  %spec.select = tail call i32 @llvm.umax.i32(i32 %59, i32 %.02730)
  %indvars.iv.next = add nuw nsw i64 %indvars.iv, 1
  %exitcond.not = icmp eq i64 %indvars.iv.next, %wide.trip.count
  br i1 %exitcond.not, label %._crit_edge, label %30, !llvm.loop !246

._crit_edge:                                      ; preds = %H5VM_log2_gen.exit, %8
  %.027.lcssa = phi i32 [ 0, %8 ], [ %spec.select, %H5VM_log2_gen.exit ]
  %60 = getelementptr inbounds nuw i8, ptr %26, i64 408
  store i32 %.027.lcssa, ptr %60, align 8, !tbaa !20
  %61 = load ptr, ptr %9, align 8, !tbaa !10
  %62 = getelementptr inbounds nuw i8, ptr %61, i64 276
  %63 = load i32, ptr %62, align 4, !tbaa !20
  %64 = zext i32 %63 to i64
  %65 = getelementptr inbounds nuw i8, ptr %61, i64 272
  %66 = load i32, ptr %65, align 8, !tbaa !20
  %67 = icmp ugt i32 %66, 1
  br i1 %67, label %.lr.ph36.preheader, label %._crit_edge37.thread

.lr.ph36.preheader:                               ; preds = %._crit_edge
  %wide.trip.count43 = zext i32 %66 to i64
  br label %.lr.ph36

.lr.ph36:                                         ; preds = %.lr.ph36.preheader, %.lr.ph36
  %indvars.iv40 = phi i64 [ 1, %.lr.ph36.preheader ], [ %indvars.iv.next41, %.lr.ph36 ]
  %.034 = phi i64 [ %64, %.lr.ph36.preheader ], [ %71, %.lr.ph36 ]
  %68 = getelementptr inbounds nuw [33 x i32], ptr %62, i64 0, i64 %indvars.iv40
  %69 = load i32, ptr %68, align 4, !tbaa !20
  %70 = zext i32 %69 to i64
  %71 = mul i64 %.034, %70
  %indvars.iv.next41 = add nuw nsw i64 %indvars.iv40, 1
  %exitcond44.not = icmp eq i64 %indvars.iv.next41, %wide.trip.count43
  br i1 %exitcond44.not, label %._crit_edge37, label %.lr.ph36, !llvm.loop !247

._crit_edge37:                                    ; preds = %.lr.ph36
  %72 = icmp ugt i64 %71, 4294967295
  br i1 %72, label %73, label %._crit_edge37.thread

73:                                               ; preds = %._crit_edge37
  %74 = load i64, ptr @H5E_DATASET_g, align 8, !tbaa !21
  %75 = load i64, ptr @H5E_CANTINIT_g, align 8, !tbaa !21
  %76 = tail call i32 (ptr, ptr, i32, i64, i64, ptr, ...) @H5E_printf_stack(ptr noundef nonnull @.str.1, ptr noundef nonnull @__func__.H5D__chunk_set_sizes, i32 noundef 798, i64 noundef %74, i64 noundef %75, ptr noundef nonnull @.str.14) #15
  br label %79

._crit_edge37.thread:                             ; preds = %._crit_edge, %._crit_edge37
  %.0.lcssa46 = phi i64 [ %71, %._crit_edge37 ], [ %64, %._crit_edge ]
  %77 = trunc nuw i64 %.0.lcssa46 to i32
  %78 = getelementptr inbounds nuw i8, ptr %61, i64 412
  store i32 %77, ptr %78, align 4, !tbaa !20
  br label %79

79:                                               ; preds = %73, %._crit_edge37.thread, %1
  %.025 = phi i32 [ -1, %73 ], [ 0, %._crit_edge37.thread ], [ 0, %1 ]
  ret i32 %.025
}